; Function Attrs: mustprogress nounwind uwtable
define void @_ZN3gmx27DensityFittingForceProviderD2Ev(ptr noundef nonnull align 8 captures(none) dereferenceable(16) %0) unnamed_addr #2 align 2 personality ptr @__gxx_personality_v0 {
  %2 = getelementptr inbounds nuw i8, ptr %0, i64 8
  %3 = load ptr, ptr %2, align 8, !tbaa !4
  %.not.i = icmp eq ptr %3, null
  br i1 %.not.i, label %_ZNSt10unique_ptrIN3gmx27DensityFittingForceProvider4ImplESt14default_deleteIS2_EED2Ev.exit, label %_ZNKSt14default_deleteIN3gmx27DensityFittingForceProvider4ImplEEclEPS2_.exit.i

_ZNKSt14default_deleteIN3gmx27DensityFittingForceProvider4ImplEEclEPS2_.exit.i: ; preds = %1
  tail call void @_ZN3gmx27DensityFittingForceProvider4ImplD1Ev(ptr noundef nonnull align 8 dereferenceable(304) %3) #26
  tail call void @_ZdlPvm(ptr noundef nonnull %3, i64 noundef 304) #29
  br label %_ZNSt10unique_ptrIN3gmx27DensityFittingForceProvider4ImplESt14default_deleteIS2_EED2Ev.exit

_ZNSt10unique_ptrIN3gmx27DensityFittingForceProvider4ImplESt14default_deleteIS2_EED2Ev.exit: ; preds = %1, %_ZNKSt14default_deleteIN3gmx27DensityFittingForceProvider4ImplEEclEPS2_.exit.i
  store ptr null, ptr %2, align 8, !tbaa !4
  ret void
}